target datalayout = "e-m:e-p270:32:32-p271:32:32-p272:64:64-i64:64-i128:128-f80:128-n8:16:32:64-S128"
target triple = "x86_64-pc-linux-gnu"

%struct.anon = type { [8 x [8 x ptr]], [8 x [8 x ptr]], ptr, ptr, ptr, ptr, ptr, double, double, double, double, double, double, i64, i64, i64, i64 }

; Function Attrs: nounwind uwtable
define internal void @FreeUserData(ptr noundef %0) #0 {
  %2 = alloca ptr, align 8
  %3 = alloca i32, align 4
  %4 = alloca i32, align 4
  store ptr %0, ptr %2, align 8, !tbaa !9
  call void @llvm.lifetime.start.p0(i64 4, ptr %3) #6
  call void @llvm.lifetime.start.p0(i64 4, ptr %4) #6
  store i32 0, ptr %3, align 4, !tbaa !12
  br label %5

5:                                                ; preds = %35, %1
  %6 = load i32, ptr %3, align 4, !tbaa !12
  %7 = icmp slt i32 %6, 8
  br i1 %7, label %8, label %38

8:                                                ; preds = %5
  store i32 0, ptr %4, align 4, !tbaa !12
  br label %9

9:                                                ; preds = %31, %8
  %10 = load i32, ptr %4, align 4, !tbaa !12
  %11 = icmp slt i32 %10, 8
  br i1 %11, label %12, label %34

12:                                               ; preds = %9
  %13 = load ptr, ptr %2, align 8, !tbaa !9
  %14 = getelementptr inbounds nuw %struct.anon, ptr %13, i32 0, i32 0
  %15 = load i32, ptr %3, align 4, !tbaa !12
  %16 = sext i32 %15 to i64
  %17 = getelementptr inbounds [8 x [8 x ptr]], ptr %14, i64 0, i64 %16
  %18 = load i32, ptr %4, align 4, !tbaa !12
  %19 = sext i32 %18 to i64
  %20 = getelementptr inbounds [8 x ptr], ptr %17, i64 0, i64 %19
  %21 = load ptr, ptr %20, align 8, !tbaa !29
  call void @SUNDlsMat_destroyMat(ptr noundef %21)
  %22 = load ptr, ptr %2, align 8, !tbaa !9
  %23 = getelementptr inbounds nuw %struct.anon, ptr %22, i32 0, i32 1
  %24 = load i32, ptr %3, align 4, !tbaa !12
  %25 = sext i32 %24 to i64
  %26 = getelementptr inbounds [8 x [8 x ptr]], ptr %23, i64 0, i64 %25
  %27 = load i32, ptr %4, align 4, !tbaa !12
  %28 = sext i32 %27 to i64
  %29 = getelementptr inbounds [8 x ptr], ptr %26, i64 0, i64 %28
  %30 = load ptr, ptr %29, align 8, !tbaa !30
  call void @SUNDlsMat_destroyArray(ptr noundef %30)
  br label %31

31:                                               ; preds = %12
  %32 = load i32, ptr %4, align 4, !tbaa !12
  %33 = add nsw i32 %32, 1
  store i32 %33, ptr %4, align 4, !tbaa !12
  br label %9

34:                                               ; preds = %9
  br label %35

35:                                               ; preds = %34
  %36 = load i32, ptr %3, align 4, !tbaa !12
  %37 = add nsw i32 %36, 1
  store i32 %37, ptr %3, align 4, !tbaa !12
  br label %5

38:                                               ; preds = %5
  %39 = load ptr, ptr %2, align 8, !tbaa !9
  %40 = getelementptr inbounds nuw %struct.anon, ptr %39, i32 0, i32 2
  %41 = load ptr, ptr %40, align 8, !tbaa !32
  call void @SUNDlsMat_destroyMat(ptr noundef %41)
  %42 = load ptr, ptr %2, align 8, !tbaa !9
  %43 = getelementptr inbounds nuw %struct.anon, ptr %42, i32 0, i32 3
  %44 = load ptr, ptr %43, align 8, !tbaa !33
  call void @free(ptr noundef %44) #6
  %45 = load ptr, ptr %2, align 8, !tbaa !9
  %46 = getelementptr inbounds nuw %struct.anon, ptr %45, i32 0, i32 5
  %47 = load ptr, ptr %46, align 8, !tbaa !34
  call void @free(ptr noundef %47) #6
  %48 = load ptr, ptr %2, align 8, !tbaa !9
  %49 = getelementptr inbounds nuw %struct.anon, ptr %48, i32 0, i32 6
  %50 = load ptr, ptr %49, align 8, !tbaa !35
  call void @free(ptr noundef %50) #6
  %51 = load ptr, ptr %2, align 8, !tbaa !9
  %52 = getelementptr inbounds nuw %struct.anon, ptr %51, i32 0, i32 4
  %53 = load ptr, ptr %52, align 8, !tbaa !16
  call void @N_VDestroy(ptr noundef %53)
  %54 = load ptr, ptr %2, align 8, !tbaa !9
  call void @free(ptr noundef %54) #6
  call void @llvm.lifetime.end.p0(i64 4, ptr %4) #6
  call void @llvm.lifetime.end.p0(i64 4, ptr %3) #6
  ret void
}